target datalayout = "e-m:e-p270:32:32-p271:32:32-p272:64:64-i64:64-i128:128-f80:128-n8:16:32:64-S128"
target triple = "x86_64-pc-linux-gnu"

%"class.WeakProcessor::Task" = type { ptr, i32, %class.OopStorageSetWeakParState }
%class.OopStorageSetWeakParState = type { %class.OopStorageSetParState }
%class.OopStorageSetParState = type { %struct.ValueObjArray }
%struct.ValueObjArray = type { [10 x ptr], %class.ValueObjBlock }
%class.ValueObjBlock = type { %"class.OopStorage::ParState", %class.ValueObjBlock.1 }
%"class.OopStorage::ParState" = type { %"class.OopStorage::BasicParState" }
%"class.OopStorage::BasicParState" = type { ptr, ptr, i64, i64, i32, i8, i64 }
%class.ValueObjBlock.1 = type { %"class.OopStorage::ParState", %class.ValueObjBlock.2 }
%class.ValueObjBlock.2 = type { %"class.OopStorage::ParState", %class.ValueObjBlock.3 }
%class.ValueObjBlock.3 = type { %"class.OopStorage::ParState", %class.ValueObjBlock.4 }
%class.ValueObjBlock.4 = type { %"class.OopStorage::ParState", %class.ValueObjBlock.5 }
%class.ValueObjBlock.5 = type { %"class.OopStorage::ParState", %class.ValueObjBlock.6 }
%class.ValueObjBlock.6 = type { %"class.OopStorage::ParState", %class.ValueObjBlock.7 }
%class.ValueObjBlock.7 = type { %"class.OopStorage::ParState", %class.ValueObjBlock.8 }
%class.ValueObjBlock.8 = type { %"class.OopStorage::ParState", %class.ValueObjBlock.9 }
%class.ValueObjBlock.9 = type <{ %"class.OopStorage::ParState", %class.ValueObjBlock.10, [7 x i8] }>
%class.ValueObjBlock.10 = type { i8 }

; Function Attrs: mustprogress nounwind uwtable
define internal void @_ZL20notify_jvmti_tagmapsv() #1 {
  call void @_ZN11JvmtiTagMap18set_needs_cleaningEv()
  ret void
}

; Function Attrs: mustprogress nounwind uwtable
define hidden void @_ZN13WeakProcessor4Task10initializeEv(ptr noundef nonnull align 8 dereferenceable(584) %0) #1 align 2 {
  %2 = alloca ptr, align 8
  store ptr %0, ptr %2, align 8
  %3 = load ptr, ptr %2, align 8
  %4 = getelementptr inbounds %"class.WeakProcessor::Task", ptr %3, i32 0, i32 0
  %5 = load ptr, ptr %4, align 8
  %6 = icmp ne ptr %5, null
  br i1 %6, label %7, label %12

7:                                                ; preds = %1
  %8 = getelementptr inbounds %"class.WeakProcessor::Task", ptr %3, i32 0, i32 0
  %9 = load ptr, ptr %8, align 8
  %10 = getelementptr inbounds %"class.WeakProcessor::Task", ptr %3, i32 0, i32 1
  %11 = load i32, ptr %10, align 8
  call void @_ZN18WeakProcessorTimes18set_active_workersEj(ptr noundef nonnull align 8 dereferenceable(96) %9, i32 noundef %11)
  br label %12

12:                                               ; preds = %7, %1
  call void @_ZL20notify_jvmti_tagmapsv()
  ret void
}