; Function Attrs: mustprogress nounwind uwtable
define hidden void @_ZN13WeakProcessor4Task10initializeEv(ptr nocapture noundef nonnull readonly align 8 dereferenceable(584) %0) local_unnamed_addr #0 align 2 {
  %2 = load ptr, ptr %0, align 8
  %.not = icmp eq ptr %2, null
  br i1 %.not, label %6, label %3

3:                                                ; preds = %1
  %4 = getelementptr inbounds i8, ptr %0, i64 8
  %5 = load i32, ptr %4, align 8
  tail call void @_ZN18WeakProcessorTimes18set_active_workersEj(ptr noundef nonnull align 8 dereferenceable(96) %2, i32 noundef %5) #6
  br label %6

6:                                                ; preds = %3, %1
  tail call void @_ZN11JvmtiTagMap18set_needs_cleaningEv() #6
  ret void
}